

Microchip Technology PIC18 LITE Macro Assembler V1.30 build 55553 
                                                                                               Wed Feb 12 16:15:47 2014

Microchip Technology Omniscient Code Generator (Lite mode) build 55553
     1                           	processor	18F46K22
     2                           	fnconf	rparam,??,?,0
     3                           	opt	pw 120
     4                           	opt	lm
     5                           	psect	text0,global,reloc=2,class=CODE,delta=1
     6                           	psect	cinit,global,reloc=2,class=CODE,delta=1
     7                           	psect	cstackCOMRAM,global,class=COMRAM,space=1,delta=1
     8                           	psect	text1,global,reloc=2,class=CODE,delta=1
     9                           	psect	text2,global,reloc=2,class=CODE,delta=1
    10                           	psect	text3,global,reloc=2,class=CODE,delta=1
    11                           	psect	text4,global,reloc=2,class=CODE,delta=1
    12                           	psect	text5,global,reloc=2,class=CODE,delta=1
    13                           	psect	text6,global,reloc=2,class=CODE,delta=1
    14                           	psect	intsave_regs,global,class=BIGRAM,space=1,delta=1
    15                           	psect	rparam,global,class=COMRAM,space=1,delta=1
    16  0000                     _ANSELBbits	set	3897
    17  0000                     _INTCON2bits	set	4081
    18  0000                     _INTCONbits	set	4082
    19  0000                     _LATA	set	3977
    20  0000                     _TRISA	set	3986
    21  0000                     _TRISB	set	3987
    22                           
    23 ;;
    24 ;;Main: autosize = 0, tempsize = 0, incstack = 0, save=0
    25 ;;
    26 ;; *************** function _main *****************
    27 ;; Defined at:
    28 ;;		line 57 in file "main.c"
    29 ;; Parameters:    Size  Location     Type
    30 ;;		None
    31 ;; Auto vars:     Size  Location     Type
    32 ;;  firststop       1    7[COMRAM] unsigned char 
    33 ;; Return value:  Size  Location     Type
    34 ;;                  2   43[COMRAM] int 
    35 ;; Registers used:
    36 ;;		wreg, status,2, status,0, cstack
    37 ;; Tracked objects:
    38 ;;		On entry : 0/0
    39 ;;		On exit  : 0/0
    40 ;;		Unchanged: 0/0
    41 ;; Data sizes:     COMRAM   BANK0   BANK1   BANK2   BANK3   BANK4   BANK5   BANK6   BANK7   BANK8   BANK9  BANK10  BANK1
      +1  BANK12  BANK13  BANK14  BANK15
    42 ;;      Params:         0       0       0       0       0       0       0       0       0       0       0       0       
      +0       0       0       0       0
    43 ;;      Locals:         1       0       0       0       0       0       0       0       0       0       0       0       
      +0       0       0       0       0
    44 ;;      Temps:          0       0       0       0       0       0       0       0       0       0       0       0       
      +0       0       0       0       0
    45 ;;      Totals:         1       0       0       0       0       0       0       0       0       0       0       0       
      +0       0       0       0       0
    46 ;;Total ram usage:        1 bytes
    47 ;; Hardware stack levels required when called:    3
    48 ;; This function calls:
    49 ;;		_init
    50 ;;		_program
    51 ;;		_setup
    52 ;; This function is called by:
    53 ;;		Startup code after reset
    54 ;; This function uses a non-reentrant model
    55 ;;
    56                           
    57                           	psect	text0
    58  00FF70                     __ptext0:
    59                           	opt stack 0
    60  00FF70                     _main:
    61                           	opt stack 28
    62                           
    63                           ;main.c: 58: unsigned char firststop;
    64                           ;main.c: 59: setup();
    65                           
    66                           ;incstack = 0
    67  00FF70  ECC1  F07F         	call	_setup	;wreg free
    68                           
    69                           ;main.c: 60: firststop = init();
    70  00FF74  ECAF  F07F         	call	_init	;wreg free
    71  00FF78  6E08               	movwf	main@firststop,c
    72  00FF7A                     l687:
    73                           
    74                           ;main.c: 62: program(firststop);
    75  00FF7A  5008               	movf	main@firststop,w,c
    76  00FF7C  ECD9  F07F         	call	_program
    77  00FF80  D7FC               	goto	l687
    78  00FF82                     __end_of_main:
    79                           	opt stack 0
    80                           
    81                           	psect	cinit
    82  00FF46                     __pcinit:
    83                           	opt stack 0
    84  00FF46                     start_initialization:
    85                           	opt stack 0
    86  00FF46                     __initialization:
    87                           	opt stack 0
    88  00FF46                     end_of_initialization:
    89                           	opt stack 0
    90  00FF46                     __end_of__initialization:
    91                           	opt stack 0
    92  00FF46  0100               	movlb	0
    93  00FF48  EFB8  F07F         	goto	_main	;jump to C main() function
    94                           
    95                           	psect	cstackCOMRAM
    96  000001                     __pcstackCOMRAM:
    97                           	opt stack 0
    98  000001                     ??_leds:
    99  000001                     
   100                           ; 2 bytes @ 0x0
   101  000001                     	ds	1
   102  000002                     leds@port:
   103                           	opt stack 0
   104                           
   105                           ; 1 bytes @ 0x1
   106  000002                     	ds	1
   107  000003                     ??_chenillard:
   108                           
   109                           ; 0 bytes @ 0x2
   110  000003                     	ds	1
   111  000004                     chenillard@tmp:
   112                           	opt stack 0
   113                           
   114                           ; 1 bytes @ 0x3
   115  000004                     	ds	1
   116  000005                     chenillard@Leds:
   117                           	opt stack 0
   118                           
   119                           ; 1 bytes @ 0x4
   120  000005                     	ds	1
   121  000006                     init@stopled:
   122                           	opt stack 0
   123  000006                     program@stopled:
   124                           	opt stack 0
   125                           
   126                           ; 1 bytes @ 0x5
   127  000006                     	ds	1
   128  000007                     program@stopled1:
   129                           	opt stack 0
   130                           
   131                           ; 1 bytes @ 0x6
   132  000007                     	ds	1
   133  000008                     main@firststop:
   134                           	opt stack 0
   135                           
   136                           ; 1 bytes @ 0x7
   137  000008                     	ds	1
   138                           
   139 ;; *************** function _setup *****************
   140 ;; Defined at:
   141 ;;		line 10 in file "main.c"
   142 ;; Parameters:    Size  Location     Type
   143 ;;		None
   144 ;; Auto vars:     Size  Location     Type
   145 ;;		None
   146 ;; Return value:  Size  Location     Type
   147 ;;		None               void
   148 ;; Registers used:
   149 ;;		wreg, status,2
   150 ;; Tracked objects:
   151 ;;		On entry : 0/0
   152 ;;		On exit  : 0/0
   153 ;;		Unchanged: 0/0
   154 ;; Data sizes:     COMRAM   BANK0   BANK1   BANK2   BANK3   BANK4   BANK5   BANK6   BANK7   BANK8   BANK9  BANK10  BANK1
      +1  BANK12  BANK13  BANK14  BANK15
   155 ;;      Params:         0       0       0       0       0       0       0       0       0       0       0       0       
      +0       0       0       0       0
   156 ;;      Locals:         0       0       0       0       0       0       0       0       0       0       0       0       
      +0       0       0       0       0
   157 ;;      Temps:          0       0       0       0       0       0       0       0       0       0       0       0       
      +0       0       0       0       0
   158 ;;      Totals:         0       0       0       0       0       0       0       0       0       0       0       0       
      +0       0       0       0       0
   159 ;;Total ram usage:        0 bytes
   160 ;; Hardware stack levels used:    1
   161 ;; This function calls:
   162 ;;		Nothing
   163 ;; This function is called by:
   164 ;;		_main
   165 ;; This function uses a non-reentrant model
   166 ;;
   167                           
   168                           	psect	text1
   169  00FF82                     __ptext1:
   170                           	opt stack 0
   171  00FF82                     _setup:
   172                           	opt stack 30
   173                           
   174                           ;main.c: 11: TRISA=0x00;
   175                           
   176                           ;incstack = 0
   177  00FF82  0E00               	movlw	0
   178  00FF84  6E92               	movwf	3986,c	;volatile
   179                           
   180                           ;main.c: 12: TRISB=0xFF;
   181  00FF86  6893               	setf	3987,c	;volatile
   182                           
   183                           ;main.c: 13: ANSELBbits.ANSB0=0;
   184  00FF88  010F               	movlb	15	; () banked
   185  00FF8A  010F               	movlb	15	; () banked
   186  00FF8C  9139               	bcf	57,0,b	;volatile
   187                           
   188                           ; BSR set to: 15
   189                           ;main.c: 14: INTCON2bits.INTEDG0=1;
   190  00FF8E  8CF1               	bsf	intcon2,6,c	;volatile
   191                           
   192                           ; BSR set to: 15
   193                           ;main.c: 15: INTCONbits.INT0IF=0;
   194  00FF90  92F2               	bcf	intcon,1,c	;volatile
   195                           
   196                           ; BSR set to: 15
   197                           ;main.c: 16: INTCONbits.GIE=1;
   198  00FF92  8EF2               	bsf	intcon,7,c	;volatile
   199                           
   200                           ; BSR set to: 15
   201  00FF94  0012               	return	
   202  00FF96                     __end_of_setup:
   203                           	opt stack 0
   204                           intcon	equ	0xFF2
   205                           intcon2	equ	0xFF1
   206                           
   207 ;; *************** function _program *****************
   208 ;; Defined at:
   209 ;;		line 49 in file "main.c"
   210 ;; Parameters:    Size  Location     Type
   211 ;;  stopled         1    wreg     unsigned char 
   212 ;; Auto vars:     Size  Location     Type
   213 ;;  stopled         1    5[COMRAM] unsigned char 
   214 ;;  stopled1        1    6[COMRAM] unsigned char 
   215 ;; Return value:  Size  Location     Type
   216 ;;		None               void
   217 ;; Registers used:
   218 ;;		wreg, status,2, status,0, cstack
   219 ;; Tracked objects:
   220 ;;		On entry : 0/0
   221 ;;		On exit  : 0/0
   222 ;;		Unchanged: 0/0
   223 ;; Data sizes:     COMRAM   BANK0   BANK1   BANK2   BANK3   BANK4   BANK5   BANK6   BANK7   BANK8   BANK9  BANK10  BANK1
      +1  BANK12  BANK13  BANK14  BANK15
   224 ;;      Params:         0       0       0       0       0       0       0       0       0       0       0       0       
      +0       0       0       0       0
   225 ;;      Locals:         2       0       0       0       0       0       0       0       0       0       0       0       
      +0       0       0       0       0
   226 ;;      Temps:          0       0       0       0       0       0       0       0       0       0       0       0       
      +0       0       0       0       0
   227 ;;      Totals:         2       0       0       0       0       0       0       0       0       0       0       0       
      +0       0       0       0       0
   228 ;;Total ram usage:        2 bytes
   229 ;; Hardware stack levels used:    1
   230 ;; Hardware stack levels required when called:    2
   231 ;; This function calls:
   232 ;;		_chenillard
   233 ;;		_stop
   234 ;; This function is called by:
   235 ;;		_main
   236 ;; This function uses a non-reentrant model
   237 ;;
   238                           
   239                           	psect	text2
   240  00FFB2                     __ptext2:
   241                           	opt stack 0
   242  00FFB2                     _program:
   243                           	opt stack 28
   244                           
   245                           ; BSR set to: 15
   246                           ;incstack = 0
   247                           ;program@stopled stored from wreg
   248  00FFB2  CFE8 F006          	movff	wreg,program@stopled
   249                           
   250                           ;main.c: 50: unsigned char stopled1;
   251                           ;main.c: 51: INTCONbits.INT0IF=0;
   252  00FFB6  92F2               	bcf	intcon,1,c	;volatile
   253                           
   254                           ;main.c: 52: stopled1 = chenillard(stopled);
   255  00FFB8  5006               	movf	program@stopled,w,c
   256  00FFBA  ECE8  F07F         	call	_chenillard
   257  00FFBE  6E07               	movwf	program@stopled1,c
   258                           
   259                           ;main.c: 53: stop();
   260  00FFC0  ECA6  F07F         	call	_stop	;wreg free
   261                           
   262                           ;main.c: 54: chenillard(stopled1);
   263  00FFC4  5007               	movf	program@stopled1,w,c
   264  00FFC6  ECE8  F07F         	call	_chenillard
   265                           
   266                           ;main.c: 55: stop();
   267  00FFCA  ECA6  F07F         	call	_stop	;wreg free
   268  00FFCE  0012               	return	
   269  00FFD0                     __end_of_program:
   270                           	opt stack 0
   271                           intcon	equ	0xFF2
   272                           intcon2	equ	0xFF1
   273                           wreg	equ	0xFE8
   274                           
   275 ;; *************** function _init *****************
   276 ;; Defined at:
   277 ;;		line 29 in file "main.c"
   278 ;; Parameters:    Size  Location     Type
   279 ;;		None
   280 ;; Auto vars:     Size  Location     Type
   281 ;;  stopled         1    5[COMRAM] unsigned char 
   282 ;; Return value:  Size  Location     Type
   283 ;;                  1    wreg      unsigned char 
   284 ;; Registers used:
   285 ;;		wreg, status,2, status,0, cstack
   286 ;; Tracked objects:
   287 ;;		On entry : 0/0
   288 ;;		On exit  : 0/0
   289 ;;		Unchanged: 0/0
   290 ;; Data sizes:     COMRAM   BANK0   BANK1   BANK2   BANK3   BANK4   BANK5   BANK6   BANK7   BANK8   BANK9  BANK10  BANK1
      +1  BANK12  BANK13  BANK14  BANK15
   291 ;;      Params:         0       0       0       0       0       0       0       0       0       0       0       0       
      +0       0       0       0       0
   292 ;;      Locals:         1       0       0       0       0       0       0       0       0       0       0       0       
      +0       0       0       0       0
   293 ;;      Temps:          0       0       0       0       0       0       0       0       0       0       0       0       
      +0       0       0       0       0
   294 ;;      Totals:         1       0       0       0       0       0       0       0       0       0       0       0       
      +0       0       0       0       0
   295 ;;Total ram usage:        1 bytes
   296 ;; Hardware stack levels used:    1
   297 ;; Hardware stack levels required when called:    2
   298 ;; This function calls:
   299 ;;		_chenillard
   300 ;;		_stop
   301 ;; This function is called by:
   302 ;;		_main
   303 ;; This function uses a non-reentrant model
   304 ;;
   305                           
   306                           	psect	text3
   307  00FF5E                     __ptext3:
   308                           	opt stack 0
   309  00FF5E                     _init:
   310                           	opt stack 28
   311                           
   312                           ;main.c: 30: unsigned char stopled;
   313                           ;main.c: 31: INTCONbits.INT0IF=0;
   314                           
   315                           ;incstack = 0
   316  00FF5E  92F2               	bcf	intcon,1,c	;volatile
   317                           
   318                           ;main.c: 32: stopled=chenillard(0x01);
   319  00FF60  0E01               	movlw	1
   320  00FF62  ECE8  F07F         	call	_chenillard
   321  00FF66  6E06               	movwf	init@stopled,c
   322                           
   323                           ;main.c: 33: stop();
   324  00FF68  ECA6  F07F         	call	_stop	;wreg free
   325                           
   326                           ;main.c: 34: return stopled;
   327  00FF6C  5006               	movf	init@stopled,w,c
   328  00FF6E  0012               	return	
   329  00FF70                     __end_of_init:
   330                           	opt stack 0
   331                           intcon	equ	0xFF2
   332                           intcon2	equ	0xFF1
   333                           wreg	equ	0xFE8
   334                           
   335 ;; *************** function _stop *****************
   336 ;; Defined at:
   337 ;;		line 23 in file "main.c"
   338 ;; Parameters:    Size  Location     Type
   339 ;;		None
   340 ;; Auto vars:     Size  Location     Type
   341 ;;		None
   342 ;; Return value:  Size  Location     Type
   343 ;;		None               void
   344 ;; Registers used:
   345 ;;		wreg
   346 ;; Tracked objects:
   347 ;;		On entry : 0/0
   348 ;;		On exit  : 0/0
   349 ;;		Unchanged: 0/0
   350 ;; Data sizes:     COMRAM   BANK0   BANK1   BANK2   BANK3   BANK4   BANK5   BANK6   BANK7   BANK8   BANK9  BANK10  BANK1
      +1  BANK12  BANK13  BANK14  BANK15
   351 ;;      Params:         0       0       0       0       0       0       0       0       0       0       0       0       
      +0       0       0       0       0
   352 ;;      Locals:         0       0       0       0       0       0       0       0       0       0       0       0       
      +0       0       0       0       0
   353 ;;      Temps:          0       0       0       0       0       0       0       0       0       0       0       0       
      +0       0       0       0       0
   354 ;;      Totals:         0       0       0       0       0       0       0       0       0       0       0       0       
      +0       0       0       0       0
   355 ;;Total ram usage:        0 bytes
   356 ;; Hardware stack levels used:    1
   357 ;; This function calls:
   358 ;;		Nothing
   359 ;; This function is called by:
   360 ;;		_init
   361 ;;		_program
   362 ;; This function uses a non-reentrant model
   363 ;;
   364                           
   365                           	psect	text4
   366  00FF4C                     __ptext4:
   367                           	opt stack 0
   368  00FF4C                     _stop:
   369                           	opt stack 29
   370                           
   371                           ;main.c: 24: INTCONbits.INT0IF=0;
   372                           
   373                           ;incstack = 0
   374  00FF4C  92F2               	bcf	intcon,1,c	;volatile
   375                           
   376                           ;main.c: 25: while(INTCONbits.INT0IF!=1){
   377  00FF4E  D004               	goto	l645
   378  00FF50                     l643:
   379                           
   380                           ;main.c: 26: _delay((unsigned long)((1)*(4000000/4000.0)));
   381  00FF50  0EFA               	movlw	250
   382  00FF52                     u47:
   383  00FF52  F000               	nop	
   384  00FF54  2EE8               	decfsz	wreg,f,c
   385  00FF56  D7FD               	goto	u47
   386  00FF58                     l645:
   387  00FF58  B2F2               	btfsc	intcon,1,c	;volatile
   388  00FF5A  0012               	return	
   389  00FF5C  D7F9               	goto	l643
   390  00FF5E                     __end_of_stop:
   391                           	opt stack 0
   392                           intcon	equ	0xFF2
   393                           intcon2	equ	0xFF1
   394                           wreg	equ	0xFE8
   395                           
   396 ;; *************** function _chenillard *****************
   397 ;; Defined at:
   398 ;;		line 36 in file "main.c"
   399 ;; Parameters:    Size  Location     Type
   400 ;;  Leds            1    wreg     unsigned char 
   401 ;; Auto vars:     Size  Location     Type
   402 ;;  Leds            1    4[COMRAM] unsigned char 
   403 ;;  tmp             1    3[COMRAM] unsigned char 
   404 ;; Return value:  Size  Location     Type
   405 ;;                  1    wreg      unsigned char 
   406 ;; Registers used:
   407 ;;		wreg, status,2, status,0, cstack
   408 ;; Tracked objects:
   409 ;;		On entry : 0/0
   410 ;;		On exit  : 0/0
   411 ;;		Unchanged: 0/0
   412 ;; Data sizes:     COMRAM   BANK0   BANK1   BANK2   BANK3   BANK4   BANK5   BANK6   BANK7   BANK8   BANK9  BANK10  BANK1
      +1  BANK12  BANK13  BANK14  BANK15
   413 ;;      Params:         0       0       0       0       0       0       0       0       0       0       0       0       
      +0       0       0       0       0
   414 ;;      Locals:         2       0       0       0       0       0       0       0       0       0       0       0       
      +0       0       0       0       0
   415 ;;      Temps:          1       0       0       0       0       0       0       0       0       0       0       0       
      +0       0       0       0       0
   416 ;;      Totals:         3       0       0       0       0       0       0       0       0       0       0       0       
      +0       0       0       0       0
   417 ;;Total ram usage:        3 bytes
   418 ;; Hardware stack levels used:    1
   419 ;; Hardware stack levels required when called:    1
   420 ;; This function calls:
   421 ;;		_leds
   422 ;; This function is called by:
   423 ;;		_init
   424 ;;		_program
   425 ;; This function uses a non-reentrant model
   426 ;;
   427                           
   428                           	psect	text5
   429  00FFD0                     __ptext5:
   430                           	opt stack 0
   431  00FFD0                     _chenillard:
   432                           	opt stack 28
   433                           
   434                           ;incstack = 0
   435                           ;chenillard@Leds stored from wreg
   436  00FFD0  CFE8 F005          	movff	wreg,chenillard@Leds
   437                           
   438                           ;main.c: 37: unsigned char tmp;
   439                           ;main.c: 38: INTCONbits.INT0IF=0;
   440  00FFD4  92F2               	bcf	intcon,1,c	;volatile
   441                           
   442                           ;main.c: 39: while(INTCONbits.INT0IF == 0 ){
   443  00FFD6  D010               	goto	l659
   444  00FFD8                     l649:
   445                           
   446                           ;main.c: 40: leds(Leds);
   447  00FFD8  5005               	movf	chenillard@Leds,w,c
   448  00FFDA  ECCB  F07F         	call	_leds
   449                           
   450                           ;main.c: 41: Leds=Leds << 1;
   451  00FFDE  5005               	movf	chenillard@Leds,w,c
   452  00FFE0  2405               	addwf	chenillard@Leds,w,c
   453  00FFE2  6E05               	movwf	chenillard@Leds,c
   454                           
   455                           ;main.c: 42: if (Leds==0x40){
   456  00FFE4  5005               	movf	chenillard@Leds,w,c
   457  00FFE6  0A40               	xorlw	64
   458  00FFE8  A4D8               	btfss	status,2,c
   459  00FFEA  D004               	goto	l657
   460                           
   461                           ;main.c: 43: Leds=0x01;
   462  00FFEC  6E03               	movwf	??_chenillard& (0+255),c
   463  00FFEE  0E01               	movlw	1
   464  00FFF0  6E05               	movwf	chenillard@Leds,c
   465  00FFF2  5003               	movf	??_chenillard& (0+255),w,c
   466  00FFF4                     l657:
   467                           
   468                           ;main.c: 44: }
   469                           ;main.c: 45: tmp=Leds;
   470  00FFF4  C005  F004         	movff	chenillard@Leds,chenillard@tmp
   471  00FFF8                     l659:
   472  00FFF8  A2F2               	btfss	intcon,1,c	;volatile
   473  00FFFA  D7EE               	goto	l649
   474                           
   475                           ;main.c: 46: }
   476                           ;main.c: 47: return tmp;
   477  00FFFC  5004               	movf	chenillard@tmp,w,c
   478  00FFFE  0012               	return	
   479  010000                     __end_of_chenillard:
   480                           	opt stack 0
   481                           intcon	equ	0xFF2
   482                           intcon2	equ	0xFF1
   483                           wreg	equ	0xFE8
   484                           status	equ	0xFD8
   485                           
   486 ;; *************** function _leds *****************
   487 ;; Defined at:
   488 ;;		line 18 in file "main.c"
   489 ;; Parameters:    Size  Location     Type
   490 ;;  port            1    wreg     unsigned char 
   491 ;; Auto vars:     Size  Location     Type
   492 ;;  port            1    1[COMRAM] unsigned char 
   493 ;; Return value:  Size  Location     Type
   494 ;;		None               void
   495 ;; Registers used:
   496 ;;		wreg, status,2, status,0, cstack
   497 ;; Tracked objects:
   498 ;;		On entry : 0/0
   499 ;;		On exit  : 0/0
   500 ;;		Unchanged: 0/0
   501 ;; Data sizes:     COMRAM   BANK0   BANK1   BANK2   BANK3   BANK4   BANK5   BANK6   BANK7   BANK8   BANK9  BANK10  BANK1
      +1  BANK12  BANK13  BANK14  BANK15
   502 ;;      Params:         0       0       0       0       0       0       0       0       0       0       0       0       
      +0       0       0       0       0
   503 ;;      Locals:         1       0       0       0       0       0       0       0       0       0       0       0       
      +0       0       0       0       0
   504 ;;      Temps:          1       0       0       0       0       0       0       0       0       0       0       0       
      +0       0       0       0       0
   505 ;;      Totals:         2       0       0       0       0       0       0       0       0       0       0       0       
      +0       0       0       0       0
   506 ;;Total ram usage:        2 bytes
   507 ;; Hardware stack levels used:    1
   508 ;; This function calls:
   509 ;;		Nothing
   510 ;; This function is called by:
   511 ;;		_chenillard
   512 ;; This function uses a non-reentrant model
   513 ;;
   514                           
   515                           	psect	text6
   516  00FF96                     __ptext6:
   517                           	opt stack 0
   518  00FF96                     _leds:
   519                           	opt stack 28
   520                           
   521                           ;incstack = 0
   522                           ;leds@port stored from wreg
   523  00FF96  CFE8 F002          	movff	wreg,leds@port
   524                           
   525                           ;main.c: 19: port=~port;
   526  00FF9A  1E02               	comf	leds@port,f,c
   527                           
   528                           ;main.c: 20: LATA=port;
   529  00FF9C  C002  FF89         	movff	leds@port,3977	;volatile
   530                           
   531                           ;main.c: 21: _delay((unsigned long)((25)*(4000000/4000.0)));
   532  00FFA0  0E21               	movlw	33
   533  00FFA2  6E01               	movwf	??_leds& (0+255),c
   534  00FFA4  0E76               	movlw	118
   535  00FFA6                     u57:
   536  00FFA6  2EE8               	decfsz	wreg,f,c
   537  00FFA8  D7FE               	goto	u57
   538  00FFAA  2E01               	decfsz	??_leds& (0+255),f,c
   539  00FFAC  D7FC               	goto	u57
   540  00FFAE  D000               	nop2	
   541  00FFB0  0012               	return	
   542  00FFB2                     __end_of_leds:
   543                           	opt stack 0
   544  0000                     intcon	equ	0xFF2
   545                           intcon2	equ	0xFF1
   546                           wreg	equ	0xFE8
   547                           status	equ	0xFD8
   548                           intcon	equ	0xFF2
   549                           intcon2	equ	0xFF1
   550                           wreg	equ	0xFE8
   551                           status	equ	0xFD8
   552                           
   553                           	psect	rparam
   554  0000                     intcon	equ	0xFF2
   555                           intcon2	equ	0xFF1
   556                           wreg	equ	0xFE8
   557                           status	equ	0xFD8


Data Sizes:
    Strings     0
    Constant    0
    Data        0
    BSS         0
    Persistent  0
    Stack       0

Auto Spaces:
    Space          Size  Autos    Used
    COMRAM           95      8       8
    BANK0           160      0       0
    BANK1           256      0       0
    BANK2           256      0       0
    BANK3           256      0       0
    BANK4           256      0       0
    BANK5           256      0       0
    BANK6           256      0       0
    BANK7           256      0       0
    BANK8           256      0       0
    BANK9           256      0       0
    BANK10          256      0       0
    BANK11          256      0       0
    BANK12          256      0       0
    BANK13          256      0       0
    BANK14          256      0       0
    BANK15           56      0       0

Pointer List with Targets:

    None.

Critical Paths under _main in COMRAM

    _main->_program
    _program->_chenillard
    _init->_chenillard
    _chenillard->_leds

Critical Paths under _main in BANK0

    None.

Critical Paths under _main in BANK1

    None.

Critical Paths under _main in BANK2

    None.

Critical Paths under _main in BANK3

    None.

Critical Paths under _main in BANK4

    None.

Critical Paths under _main in BANK5

    None.

Critical Paths under _main in BANK6

    None.

Critical Paths under _main in BANK7

    None.

Critical Paths under _main in BANK8

    None.

Critical Paths under _main in BANK9

    None.

Critical Paths under _main in BANK10

    None.

Critical Paths under _main in BANK11

    None.

Critical Paths under _main in BANK12

    None.

Critical Paths under _main in BANK13

    None.

Critical Paths under _main in BANK14

    None.

Critical Paths under _main in BANK15

    None.

Call Graph Tables:

 ---------------------------------------------------------------------------------
 (Depth) Function   	        Calls       Base Space   Used Autos Params    Refs
 ---------------------------------------------------------------------------------
 (0) _main                                                 1     1      0     270
                                              7 COMRAM     1     1      0
                               _init
                            _program
                              _setup
 ---------------------------------------------------------------------------------
 (1) _setup                                                0     0      0       0
 ---------------------------------------------------------------------------------
 (1) _program                                              2     2      0     135
                                              5 COMRAM     2     2      0
                         _chenillard
                               _stop
 ---------------------------------------------------------------------------------
 (1) _init                                                 1     1      0     120
                                              5 COMRAM     1     1      0
                         _chenillard
                               _stop
 ---------------------------------------------------------------------------------
 (2) _stop                                                 0     0      0       0
 ---------------------------------------------------------------------------------
 (2) _chenillard                                           3     3      0     105
                                              2 COMRAM     3     3      0
                               _leds
 ---------------------------------------------------------------------------------
 (3) _leds                                                 2     2      0      30
                                              0 COMRAM     2     2      0
 ---------------------------------------------------------------------------------
 Estimated maximum stack depth 3
 ---------------------------------------------------------------------------------

 Call Graph Graphs:

 _main (ROOT)
   _init
     _chenillard
       _leds
     _stop
   _program
     _chenillard
       _leds
     _stop
   _setup

 Address spaces:
Name               Size   Autos  Total    Cost      Usage
BITCOMRAM           5F      0       0       0        0.0%
EEDATA             400      0       0       0        0.0%
NULL                 0      0       0       0        0.0%
CODE                 0      0       0       0        0.0%
COMRAM              5F      8       8       1        8.4%
STACK                0      0       0       2        0.0%
DATA                 0      0       0       3        0.0%
BITBANK0            A0      0       0       4        0.0%
BANK0               A0      0       0       5        0.0%
BITBANK1           100      0       0       6        0.0%
BANK1              100      0       0       7        0.0%
BITBANK2           100      0       0       8        0.0%
BANK2              100      0       0       9        0.0%
BITBANK3           100      0       0      10        0.0%
BANK3              100      0       0      11        0.0%
ABS                  0      0       0      12        0.0%
BITBANK4           100      0       0      13        0.0%
BANK4              100      0       0      14        0.0%
BITBANK5           100      0       0      15        0.0%
BANK5              100      0       0      16        0.0%
BITBANK6           100      0       0      17        0.0%
BANK6              100      0       0      18        0.0%
BITBANK7           100      0       0      19        0.0%
BANK7              100      0       0      20        0.0%
BITBANK8           100      0       0      21        0.0%
BANK8              100      0       0      22        0.0%
BITBANK9           100      0       0      23        0.0%
BANK9              100      0       0      24        0.0%
BITBANK10          100      0       0      25        0.0%
BANK10             100      0       0      26        0.0%
BITBANK11          100      0       0      27        0.0%
BANK11             100      0       0      28        0.0%
BITBANK12          100      0       0      29        0.0%
BANK12             100      0       0      30        0.0%
BITBANK13          100      0       0      31        0.0%
BANK13             100      0       0      32        0.0%
BITBANK14          100      0       0      33        0.0%
BANK14             100      0       0      34        0.0%
BITBANK15           38      0       0      35        0.0%
BANK15              38      0       0      36        0.0%
BIGRAM             F37      0       0      37        0.0%
BITSFR_1             0      0       0      40        0.0%
SFR_1                0      0       0      40        0.0%
BITSFR               0      0       0      40        0.0%
SFR                  0      0       0      40        0.0%


Microchip Technology PIC18 Macro Assembler V1.30 build 55553 
Symbol Table                                                                                   Wed Feb 12 16:15:47 2014

                     u47 FF52                       u57 FFA6             __CFG_CP0$OFF 000000  
           __CFG_CP1$OFF 000000             __CFG_CP2$OFF 000000             __CFG_CP3$OFF 000000  
                    l643 FF50                      l645 FF58                      l657 FFF4  
                    l649 FFD8                      l659 FFF8                      l687 FF7A  
           __CFG_CPB$OFF 000000             __CFG_CPD$OFF 000000           chenillard@Leds 0005  
                    wreg 000FE8             __CFG_FOSC$XT 000000             __CFG_LVP$OFF 000000  
                   _LATA 000F89                     _main FF70                     _leds FF96  
                   _init FF5E                     _stop FF4C            __CFG_BORV$190 000000  
                   start 0000            __CFG_IESO$OFF 000000                    ?_main 0001  
                  ?_leds 0001                    ?_init 0001                    ?_stop 0001  
                  _TRISA 000F92                    _TRISB 000F93            __CFG_WRT0$OFF 000000  
          __CFG_WRT1$OFF 000000            __CFG_WRT2$OFF 000000            __CFG_WRT3$OFF 000000  
         __CFG_EBTR0$OFF 000000           __CFG_FCMEN$OFF 000000           __CFG_EBTR1$OFF 000000  
         __CFG_EBTR2$OFF 000000           __CFG_EBTR3$OFF 000000            __CFG_WRTB$OFF 000000  
          __CFG_WRTC$OFF 000000            __CFG_WRTD$OFF 000000           __CFG_EBTRB$OFF 000000  
     __CFG_MCLRE$EXTMCLR 000000                    _setup FF82          __end_of_program FFD0  
                  status 000FD8           __CFG_HFOFST$ON 000000           __CFG_PBADEN$ON 000000  
        __initialization FF46             __end_of_main FF82             __end_of_leds FFB2  
           __end_of_init FF70             __end_of_stop FF5E                   ??_main 0008  
                 ??_leds 0001                   ??_init 0006                   ??_stop 0001  
          __activetblptr 000000              init@stopled 0006                   ?_setup 0001  
         __CFG_WDTEN$OFF 000000            main@firststop 0008           __CFG_XINST$OFF 000000  
         __CFG_STVREN$ON 000000                ??_program 0006               __accesstop 0060  
__end_of__initialization FF46           __pcstackCOMRAM 0001            __end_of_setup FF96  
                ??_setup 0001          __CFG_PLLCFG$OFF 000000               _chenillard FFD0  
     __CFG_CCP2MX$PORTC1 000000       __CFG_CCP3MX$PORTB5 000000           program@stopled 0006  
        __CFG_PWRTEN$OFF 000000                  __Hparam 0000                  __Lparam 0000  
                __pcinit FF46                  __ramtop 1000                  __ptext0 FF70  
                __ptext1 FF82                  __ptext2 FFB2                  __ptext3 FF5E  
                __ptext4 FF4C                  __ptext5 FFD0                  __ptext6 FF96  
                _program FFB2     end_of_initialization FF46              ?_chenillard 0001  
          chenillard@tmp 0004      start_initialization FF46      __size_of_chenillard 0030  
       __CFG_PRICLKEN$ON 000000                 ?_program 0001           __size_of_setup 0014  
        program@stopled1 0007             ??_chenillard 0003         __CFG_WDTPS$32768 000000  
     __end_of_chenillard 0000              _INTCON2bits 000FF1                 __Hrparam 0000  
               __Lrparam 0000       __CFG_BOREN$SBORDIS 000000        __CFG_P2BMX$PORTD2 000000  
             _ANSELBbits 000F39         __size_of_program 001E            __size_of_main 0012  
          __size_of_leds 001C            __size_of_init 0012            __size_of_stop 0012  
               leds@port 0002               _INTCONbits 000FF2        __CFG_T3CMX$PORTC0 000000  
